target datalayout = "e-m:e-p270:32:32-p271:32:32-p272:64:64-i64:64-i128:128-f80:128-n8:16:32:64-S128"
target triple = "x86_64-pc-linux-gnu"

%"class.google::protobuf::strings::ByteSink" = type { ptr }
%"class.google::protobuf::strings::GrowingArrayByteSink" = type { %"class.google::protobuf::strings::ByteSink", i64, ptr, i64 }

; Function Attrs: mustprogress uwtable
define hidden void @_ZN6google8protobuf7strings20GrowingArrayByteSink11ShrinkToFitEv(ptr noundef nonnull align 8 dereferenceable(32) %0) #4 align 2 {
  %2 = alloca ptr, align 8
  %3 = alloca ptr, align 8
  store ptr %0, ptr %2, align 8, !tbaa !40
  %4 = load ptr, ptr %2, align 8
  %5 = getelementptr inbounds nuw %"class.google::protobuf::strings::GrowingArrayByteSink", ptr %4, i32 0, i32 1
  %6 = load i64, ptr %5, align 8, !tbaa !42
  %7 = icmp ugt i64 %6, 256
  br i1 %7, label %8, label %35

8:                                                ; preds = %1
  %9 = getelementptr inbounds nuw %"class.google::protobuf::strings::GrowingArrayByteSink", ptr %4, i32 0, i32 3
  %10 = load i64, ptr %9, align 8, !tbaa !45
  %11 = getelementptr inbounds nuw %"class.google::protobuf::strings::GrowingArrayByteSink", ptr %4, i32 0, i32 1
  %12 = load i64, ptr %11, align 8, !tbaa !42
  %13 = mul i64 3, %12
  %14 = udiv i64 %13, 4
  %15 = icmp ult i64 %10, %14
  br i1 %15, label %16, label %35

16:                                               ; preds = %8
  call void @llvm.lifetime.start.p0(i64 8, ptr %3) #3
  %17 = getelementptr inbounds nuw %"class.google::protobuf::strings::GrowingArrayByteSink", ptr %4, i32 0, i32 3
  %18 = load i64, ptr %17, align 8, !tbaa !45
  %19 = call noalias noundef nonnull ptr @_Znam(i64 noundef %18) #14
  store ptr %19, ptr %3, align 8, !tbaa !26
  %20 = load ptr, ptr %3, align 8, !tbaa !26
  %21 = getelementptr inbounds nuw %"class.google::protobuf::strings::GrowingArrayByteSink", ptr %4, i32 0, i32 2
  %22 = load ptr, ptr %21, align 8, !tbaa !44
  %23 = getelementptr inbounds nuw %"class.google::protobuf::strings::GrowingArrayByteSink", ptr %4, i32 0, i32 3
  %24 = load i64, ptr %23, align 8, !tbaa !45
  call void @llvm.memcpy.p0.p0.i64(ptr align 1 %20, ptr align 1 %22, i64 %24, i1 false)
  %25 = getelementptr inbounds nuw %"class.google::protobuf::strings::GrowingArrayByteSink", ptr %4, i32 0, i32 2
  %26 = load ptr, ptr %25, align 8, !tbaa !44
  %27 = icmp eq ptr %26, null
  br i1 %27, label %29, label %28

28:                                               ; preds = %16
  call void @_ZdaPv(ptr noundef %26) #15
  br label %29

29:                                               ; preds = %28, %16
  %30 = load ptr, ptr %3, align 8, !tbaa !26
  %31 = getelementptr inbounds nuw %"class.google::protobuf::strings::GrowingArrayByteSink", ptr %4, i32 0, i32 2
  store ptr %30, ptr %31, align 8, !tbaa !44
  %32 = getelementptr inbounds nuw %"class.google::protobuf::strings::GrowingArrayByteSink", ptr %4, i32 0, i32 3
  %33 = load i64, ptr %32, align 8, !tbaa !45
  %34 = getelementptr inbounds nuw %"class.google::protobuf::strings::GrowingArrayByteSink", ptr %4, i32 0, i32 1
  store i64 %33, ptr %34, align 8, !tbaa !42
  call void @llvm.lifetime.end.p0(i64 8, ptr %3) #3
  br label %35

35:                                               ; preds = %29, %8, %1
  ret void
}

; Function Attrs: mustprogress uwtable
define hidden noundef ptr @_ZN6google8protobuf7strings20GrowingArrayByteSink9GetBufferEPm(ptr noundef nonnull align 8 dereferenceable(32) %0, ptr noundef %1) #4 align 2 {
  %3 = alloca ptr, align 8
  %4 = alloca ptr, align 8
  %5 = alloca ptr, align 8
  store ptr %0, ptr %3, align 8, !tbaa !40
  store ptr %1, ptr %4, align 8, !tbaa !21
  %6 = load ptr, ptr %3, align 8
  call void @_ZN6google8protobuf7strings20GrowingArrayByteSink11ShrinkToFitEv(ptr noundef nonnull align 8 dereferenceable(32) %6)
  call void @llvm.lifetime.start.p0(i64 8, ptr %5) #3
  %7 = getelementptr inbounds nuw %"class.google::protobuf::strings::GrowingArrayByteSink", ptr %6, i32 0, i32 2
  %8 = load ptr, ptr %7, align 8, !tbaa !44
  store ptr %8, ptr %5, align 8, !tbaa !26
  %9 = getelementptr inbounds nuw %"class.google::protobuf::strings::GrowingArrayByteSink", ptr %6, i32 0, i32 3
  %10 = load i64, ptr %9, align 8, !tbaa !45
  %11 = load ptr, ptr %4, align 8, !tbaa !21
  store i64 %10, ptr %11, align 8, !tbaa !10
  %12 = getelementptr inbounds nuw %"class.google::protobuf::strings::GrowingArrayByteSink", ptr %6, i32 0, i32 2
  store ptr null, ptr %12, align 8, !tbaa !44
  %13 = getelementptr inbounds nuw %"class.google::protobuf::strings::GrowingArrayByteSink", ptr %6, i32 0, i32 1
  store i64 0, ptr %13, align 8, !tbaa !42
  %14 = getelementptr inbounds nuw %"class.google::protobuf::strings::GrowingArrayByteSink", ptr %6, i32 0, i32 3
  store i64 0, ptr %14, align 8, !tbaa !45
  %15 = load ptr, ptr %5, align 8, !tbaa !26
  call void @llvm.lifetime.end.p0(i64 8, ptr %5) #3
  ret ptr %15
}