; Function Attrs: mustprogress uwtable
define hidden noundef ptr @_ZN6google8protobuf7strings20GrowingArrayByteSink9GetBufferEPm(ptr noundef nonnull align 8 captures(none) dereferenceable(32) %0, ptr noundef writeonly captures(none) initializes((0, 8)) %1) local_unnamed_addr #3 align 2 {
  %3 = getelementptr inbounds nuw i8, ptr %0, i64 8
  %4 = load i64, ptr %3, align 8, !tbaa !19
  %5 = icmp ugt i64 %4, 256
  %6 = getelementptr inbounds nuw i8, ptr %0, i64 24
  %7 = load i64, ptr %6, align 8, !tbaa !22
  br i1 %5, label %8, label %_ZN6google8protobuf7strings20GrowingArrayByteSink11ShrinkToFitEv.exit

8:                                                ; preds = %2
  %9 = mul i64 %4, 3
  %10 = lshr i64 %9, 2
  %11 = icmp ult i64 %7, %10
  br i1 %11, label %12, label %_ZN6google8protobuf7strings20GrowingArrayByteSink11ShrinkToFitEv.exit

12:                                               ; preds = %8
  %13 = tail call noalias noundef nonnull ptr @_Znam(i64 noundef %7) #21
  %14 = getelementptr inbounds nuw i8, ptr %0, i64 16
  %15 = load ptr, ptr %14, align 8, !tbaa !21
  tail call void @llvm.memcpy.p0.p0.i64(ptr nonnull align 1 %13, ptr align 1 %15, i64 %7, i1 false)
  %16 = icmp eq ptr %15, null
  br i1 %16, label %18, label %17

17:                                               ; preds = %12
  tail call void @_ZdaPv(ptr noundef nonnull %15) #22
  %.pre.i = load i64, ptr %6, align 8, !tbaa !22
  br label %18

18:                                               ; preds = %17, %12
  %19 = phi i64 [ %.pre.i, %17 ], [ %7, %12 ]
  store ptr %13, ptr %14, align 8, !tbaa !21
  br label %_ZN6google8protobuf7strings20GrowingArrayByteSink11ShrinkToFitEv.exit

_ZN6google8protobuf7strings20GrowingArrayByteSink11ShrinkToFitEv.exit: ; preds = %2, %8, %18
  %20 = phi i64 [ %7, %8 ], [ %19, %18 ], [ %7, %2 ]
  %21 = getelementptr inbounds nuw i8, ptr %0, i64 16
  %22 = load ptr, ptr %21, align 8, !tbaa !21
  store i64 %20, ptr %1, align 8, !tbaa !23
  tail call void @llvm.memset.p0.i64(ptr noundef nonnull align 8 dereferenceable(24) %3, i8 0, i64 24, i1 false)
  ret ptr %22
}